target datalayout = "e-m:e-p270:32:32-p271:32:32-p272:64:64-i64:64-i128:128-f80:128-n8:16:32:64-S128"
target triple = "x86_64-pc-linux-gnu"

; Function Attrs: nounwind uwtable
define i32 @Wlc_BlastGetConst(ptr noundef %0, i32 noundef %1) #0 {
  %3 = alloca i32, align 4
  %4 = alloca ptr, align 8
  %5 = alloca i32, align 4
  %6 = alloca i32, align 4
  %7 = alloca i32, align 4
  %8 = alloca i32, align 4
  store ptr %0, ptr %4, align 8, !tbaa !3
  store i32 %1, ptr %5, align 4, !tbaa !8
  call void @llvm.lifetime.start.p0(i64 4, ptr %6) #12
  call void @llvm.lifetime.start.p0(i64 4, ptr %7) #12
  store i32 0, ptr %7, align 4, !tbaa !8
  store i32 0, ptr %6, align 4, !tbaa !8
  br label %9

9:                                                ; preds = %35, %2
  %10 = load i32, ptr %6, align 4, !tbaa !8
  %11 = load i32, ptr %5, align 4, !tbaa !8
  %12 = icmp slt i32 %10, %11
  br i1 %12, label %13, label %38

13:                                               ; preds = %9
  %14 = load ptr, ptr %4, align 8, !tbaa !3
  %15 = load i32, ptr %6, align 4, !tbaa !8
  %16 = sext i32 %15 to i64
  %17 = getelementptr inbounds i32, ptr %14, i64 %16
  %18 = load i32, ptr %17, align 4, !tbaa !8
  %19 = icmp eq i32 %18, 1
  br i1 %19, label %20, label %25

20:                                               ; preds = %13
  %21 = load i32, ptr %6, align 4, !tbaa !8
  %22 = shl i32 1, %21
  %23 = load i32, ptr %7, align 4, !tbaa !8
  %24 = or i32 %23, %22
  store i32 %24, ptr %7, align 4, !tbaa !8
  br label %34

25:                                               ; preds = %13
  %26 = load ptr, ptr %4, align 8, !tbaa !3
  %27 = load i32, ptr %6, align 4, !tbaa !8
  %28 = sext i32 %27 to i64
  %29 = getelementptr inbounds i32, ptr %26, i64 %28
  %30 = load i32, ptr %29, align 4, !tbaa !8
  %31 = icmp ne i32 %30, 0
  br i1 %31, label %32, label %33

32:                                               ; preds = %25
  store i32 -1, ptr %3, align 4
  store i32 1, ptr %8, align 4
  br label %40

33:                                               ; preds = %25
  br label %34

34:                                               ; preds = %33, %20
  br label %35

35:                                               ; preds = %34
  %36 = load i32, ptr %6, align 4, !tbaa !8
  %37 = add nsw i32 %36, 1
  store i32 %37, ptr %6, align 4, !tbaa !8
  br label %9, !llvm.loop !37

38:                                               ; preds = %9
  %39 = load i32, ptr %7, align 4, !tbaa !8
  store i32 %39, ptr %3, align 4
  store i32 1, ptr %8, align 4
  br label %40

40:                                               ; preds = %38, %32
  call void @llvm.lifetime.end.p0(i64 4, ptr %7) #12
  call void @llvm.lifetime.end.p0(i64 4, ptr %6) #12
  %41 = load i32, ptr %3, align 4
  ret i32 %41
}