; Function Attrs: nofree norecurse nosync nounwind memory(argmem: read) uwtable
define i32 @Wlc_BlastGetConst(ptr noundef readonly captures(none) %0, i32 noundef %1) local_unnamed_addr #0 {
  %3 = icmp sgt i32 %1, 0
  br i1 %3, label %.lr.ph.preheader, label %._crit_edge

.lr.ph.preheader:                                 ; preds = %2
  %wide.trip.count = zext nneg i32 %1 to i64
  br label %.lr.ph

.lr.ph:                                           ; preds = %.lr.ph.preheader, %10
  %indvars.iv = phi i64 [ 0, %.lr.ph.preheader ], [ %indvars.iv.next, %10 ]
  %.014 = phi i32 [ 0, %.lr.ph.preheader ], [ %.1, %10 ]
  %4 = getelementptr inbounds nuw i32, ptr %0, i64 %indvars.iv
  %5 = load i32, ptr %4, align 4, !tbaa !3
  switch i32 %5, label %._crit_edge [
    i32 1, label %6
    i32 0, label %10
  ]

6:                                                ; preds = %.lr.ph
  %7 = trunc nuw nsw i64 %indvars.iv to i32
  %8 = shl nuw i32 1, %7
  %9 = or i32 %.014, %8
  br label %10

10:                                               ; preds = %.lr.ph, %6
  %.1 = phi i32 [ %9, %6 ], [ %.014, %.lr.ph ]
  %indvars.iv.next = add nuw nsw i64 %indvars.iv, 1
  %exitcond.not = icmp eq i64 %indvars.iv.next, %wide.trip.count
  br i1 %exitcond.not, label %._crit_edge, label %.lr.ph, !llvm.loop !32

._crit_edge:                                      ; preds = %.lr.ph, %10, %2
  %.011 = phi i32 [ 0, %2 ], [ %.1, %10 ], [ -1, %.lr.ph ]
  ret i32 %.011
}